; Function Attrs: mustprogress nofree norecurse nosync nounwind willreturn memory(argmem: read) uwtable
define internal range(i32 0, 65536) i32 @mid2_16(ptr noundef readonly captures(none) %0, ptr noundef readonly captures(none) %1, ptr readnone captures(none) %2, ptr readnone captures(none) %3, ptr readnone captures(none) %4, ptr readnone captures(none) %5, i32 noundef %6, i32 noundef %7, i32 noundef %8, i32 %9) #6 {
  %11 = add nsw i32 %8, %7
  %12 = icmp slt i32 %11, 0
  %..i = tail call i32 @llvm.smin.i32(i32 %11, i32 %6)
  %.0.i = select i1 %12, i32 0, i32 %..i
  %13 = sext i32 %.0.i to i64
  %14 = getelementptr inbounds i16, ptr %0, i64 %13
  %15 = load i16, ptr %14, align 2, !tbaa !83
  %16 = zext i16 %15 to i32
  %17 = sub nsw i32 %7, %8
  %18 = icmp slt i32 %17, 0
  %..i7 = tail call i32 @llvm.smin.i32(i32 %17, i32 %6)
  %.0.i8 = select i1 %18, i32 0, i32 %..i7
  %19 = sext i32 %.0.i8 to i64
  %20 = getelementptr inbounds i16, ptr %1, i64 %19
  %21 = load i16, ptr %20, align 2, !tbaa !83
  %22 = zext i16 %21 to i32
  %23 = add nuw nsw i32 %16, 1
  %24 = add nuw nsw i32 %23, %22
  %25 = lshr i32 %24, 1
  ret i32 %25
}